; Function Attrs: mustprogress uwtable
define hidden noundef zeroext i1 @_ZN18OpenImageIO_v2_6_09FitsInput4openERKNSt7__cxx1112basic_stringIcSt11char_traitsIcESaIcEEERNS_9ImageSpecE(ptr noundef nonnull align 8 dereferenceable(480) %this, ptr noundef nonnull align 8 dereferenceable(32) %name, ptr noundef nonnull align 8 dereferenceable(160) %spec) unnamed_addr #6 align 2 personality ptr @__gxx_personality_v0 {
entry:
  %agg.tmp = alloca %"class.OpenImageIO_v2_6_0::basic_string_view", align 8
  %agg.tmp3 = alloca %"class.OpenImageIO_v2_6_0::basic_string_view", align 8
  %magic = alloca [6 x i8], align 1
  %m_filename = getelementptr inbounds i8, ptr %this, i64 192
  %call = tail call noundef nonnull align 8 dereferenceable(32) ptr @_ZNSt7__cxx1112basic_stringIcSt11char_traitsIcESaIcEEaSERKS4_(ptr noundef nonnull align 8 dereferenceable(32) %m_filename, ptr noundef nonnull align 8 dereferenceable(32) %name)
  %call.i = tail call noundef ptr @_ZNKSt7__cxx1112basic_stringIcSt11char_traitsIcESaIcEE4dataEv(ptr noundef nonnull align 8 dereferenceable(32) %m_filename) #22
  store ptr %call.i, ptr %agg.tmp, align 8
  %m_len.i = getelementptr inbounds i8, ptr %agg.tmp, i64 8
  %call2.i = tail call noundef i64 @_ZNKSt7__cxx1112basic_stringIcSt11char_traitsIcESaIcEE4sizeEv(ptr noundef nonnull align 8 dereferenceable(32) %m_filename) #22
  store i64 %call2.i, ptr %m_len.i, align 8
  store ptr @.str.1, ptr %agg.tmp3, align 8
  %m_len.i1 = getelementptr inbounds i8, ptr %agg.tmp3, i64 8
  store i64 2, ptr %m_len.i1, align 8
  %call4 = call noundef ptr @_ZN18OpenImageIO_v2_6_010Filesystem5fopenENS_17basic_string_viewIcSt11char_traitsIcEEES4_(ptr noundef nonnull %agg.tmp, ptr noundef nonnull %agg.tmp3)
  %m_fd = getelementptr inbounds i8, ptr %this, i64 184
  store ptr %call4, ptr %m_fd, align 8
  %tobool.not = icmp eq ptr %call4, null
  br i1 %tobool.not, label %if.then, label %if.end

if.then:                                          ; preds = %entry
  call void @_ZNK18OpenImageIO_v2_6_010ImageInput6errorfIJNSt7__cxx1112basic_stringIcSt11char_traitsIcESaIcEEEEEEvPKcDpRKT_(ptr noundef nonnull align 8 dereferenceable(184) %this, ptr noundef nonnull @.str.3, ptr noundef nonnull align 8 dereferenceable(32) %m_filename)
  br label %return

if.end:                                           ; preds = %entry
  call void @llvm.memset.p0.i64(ptr noundef nonnull align 1 dereferenceable(6) %magic, i8 0, i64 6, i1 false)
  %call8 = call i64 @fread(ptr noundef nonnull %magic, i64 noundef 1, i64 noundef 6, ptr noundef nonnull %call4)
  %cmp.not = icmp eq i64 %call8, 6
  br i1 %cmp.not, label %lor.lhs.false, label %if.then12

lor.lhs.false:                                    ; preds = %if.end
  %bcmp = call i32 @bcmp(ptr noundef nonnull dereferenceable(6) %magic, ptr noundef nonnull dereferenceable(6) @.str.2, i64 6)
  %tobool11.not = icmp eq i32 %bcmp, 0
  br i1 %tobool11.not, label %if.end15, label %if.then12

if.then12:                                        ; preds = %lor.lhs.false, %if.end
  call void @_ZNK18OpenImageIO_v2_6_010ImageInput6errorfIJNSt7__cxx1112basic_stringIcSt11char_traitsIcESaIcEEEEEEvPKcDpRKT_(ptr noundef nonnull align 8 dereferenceable(184) %this, ptr noundef nonnull @.str.4, ptr noundef nonnull align 8 dereferenceable(32) %m_filename)
  %0 = load ptr, ptr %m_fd, align 8
  %tobool.not.i = icmp eq ptr %0, null
  br i1 %tobool.not.i, label %_ZN18OpenImageIO_v2_6_09FitsInput5closeEv.exit, label %if.then.i

if.then.i:                                        ; preds = %if.then12
  %call.i2 = call i32 @fclose(ptr noundef nonnull %0)
  br label %_ZN18OpenImageIO_v2_6_09FitsInput5closeEv.exit

_ZN18OpenImageIO_v2_6_09FitsInput5closeEv.exit:   ; preds = %if.then12, %if.then.i
  call void @_ZN18OpenImageIO_v2_6_09FitsInput4initEv(ptr noundef nonnull align 8 dereferenceable(480) %this)
  br label %return

if.end15:                                         ; preds = %lor.lhs.false
  %1 = load ptr, ptr %m_fd, align 8
  %call17 = call i32 @fseek(ptr noundef %1, i64 noundef 0, i32 noundef 0)
  call void @_ZN18OpenImageIO_v2_6_09FitsInput15subimage_searchEv(ptr noundef nonnull align 8 dereferenceable(480) %this)
  %call18 = call noundef zeroext i1 @_ZN18OpenImageIO_v2_6_09FitsInput13set_spec_infoEv(ptr noundef nonnull align 8 dereferenceable(480) %this)
  br i1 %call18, label %if.end20, label %return

if.end20:                                         ; preds = %if.end15
  %m_spec = getelementptr inbounds i8, ptr %this, i64 8
  call void @llvm.memcpy.p0.p0.i64(ptr noundef nonnull align 8 dereferenceable(72) %spec, ptr noundef nonnull align 8 dereferenceable(72) %m_spec, i64 72, i1 false)
  %channelformats.i = getelementptr inbounds i8, ptr %spec, i64 72
  %channelformats3.i = getelementptr inbounds i8, ptr %this, i64 80
  %call.i3 = call noundef nonnull align 8 dereferenceable(24) ptr @_ZNSt6vectorIN18OpenImageIO_v2_6_08TypeDescESaIS1_EEaSERKS3_(ptr noundef nonnull align 8 dereferenceable(24) %channelformats.i, ptr noundef nonnull align 8 dereferenceable(24) %channelformats3.i)
  %channelnames.i = getelementptr inbounds i8, ptr %spec, i64 96
  %channelnames4.i = getelementptr inbounds i8, ptr %this, i64 104
  %call5.i = call noundef nonnull align 8 dereferenceable(24) ptr @_ZNSt6vectorINSt7__cxx1112basic_stringIcSt11char_traitsIcESaIcEEESaIS5_EEaSERKS7_(ptr noundef nonnull align 8 dereferenceable(24) %channelnames.i, ptr noundef nonnull align 8 dereferenceable(24) %channelnames4.i)
  %alpha_channel.i = getelementptr inbounds i8, ptr %spec, i64 120
  %alpha_channel6.i = getelementptr inbounds i8, ptr %this, i64 128
  call void @llvm.memcpy.p0.p0.i64(ptr noundef nonnull align 8 dereferenceable(9) %alpha_channel.i, ptr noundef nonnull align 8 dereferenceable(9) %alpha_channel6.i, i64 9, i1 false)
  %extra_attribs.i = getelementptr inbounds i8, ptr %spec, i64 136
  %extra_attribs7.i = getelementptr inbounds i8, ptr %this, i64 144
  %call.i.i = call noundef nonnull align 8 dereferenceable(24) ptr @_ZNSt6vectorIN18OpenImageIO_v2_6_010ParamValueESaIS1_EEaSERKS3_(ptr noundef nonnull align 8 dereferenceable(24) %extra_attribs.i, ptr noundef nonnull align 8 dereferenceable(24) %extra_attribs7.i)
  br label %return

return:                                           ; preds = %if.end15, %if.end20, %_ZN18OpenImageIO_v2_6_09FitsInput5closeEv.exit, %if.then
  %retval.0 = phi i1 [ false, %_ZN18OpenImageIO_v2_6_09FitsInput5closeEv.exit ], [ true, %if.end20 ], [ false, %if.then ], [ false, %if.end15 ]
  ret i1 %retval.0
}